target datalayout = "e-m:e-p270:32:32-p271:32:32-p272:64:64-i64:64-i128:128-f80:128-n8:16:32:64-S128"
target triple = "x86_64-pc-linux-gnu"

%struct.dbd_register_ctld_msg = type { i16, i32, i16 }

@.str = private unnamed_addr constant [16 x i8] c"slurmdbd_pack.c\00", align 1
@__func__._unpack_register_ctld_msg = private unnamed_addr constant [26 x i8] c"_unpack_register_ctld_msg\00", align 1

; Function Attrs: nounwind uwtable
define internal i32 @_unpack_register_ctld_msg(ptr noundef %0, i16 noundef zeroext %1, ptr noundef %2) #0 {
  %4 = alloca i32, align 4
  %5 = alloca ptr, align 8
  %6 = alloca i16, align 2
  %7 = alloca ptr, align 8
  %8 = alloca ptr, align 8
  %9 = alloca i32, align 4
  %10 = alloca i32, align 4
  store ptr %0, ptr %5, align 8
  store i16 %1, ptr %6, align 2
  store ptr %2, ptr %7, align 8
  call void @llvm.lifetime.start.p0(i64 8, ptr %8) #5
  %11 = call ptr @slurm_xcalloc(i64 noundef 1, i64 noundef 12, i1 noundef zeroext true, i1 noundef zeroext false, ptr noundef @.str, i32 noundef 1106, ptr noundef @__func__._unpack_register_ctld_msg)
  store ptr %11, ptr %8, align 8
  %12 = load ptr, ptr %8, align 8
  %13 = load ptr, ptr %5, align 8
  store ptr %12, ptr %13, align 8
  %14 = load i16, ptr %6, align 2
  %15 = zext i16 %14 to i32
  %16 = icmp sge i32 %15, 10496
  br i1 %16, label %17, label %48

17:                                               ; preds = %3
  br label %18

18:                                               ; preds = %17
  %19 = load ptr, ptr %8, align 8
  %20 = getelementptr inbounds nuw %struct.dbd_register_ctld_msg, ptr %19, i32 0, i32 0
  %21 = load ptr, ptr %7, align 8
  %22 = call i32 @unpack16(ptr noundef %20, ptr noundef %21)
  %23 = icmp ne i32 %22, 0
  br i1 %23, label %24, label %25

24:                                               ; preds = %18
  br label %96

25:                                               ; preds = %18
  br label %26

26:                                               ; preds = %25
  br label %27

27:                                               ; preds = %26
  br label %28

28:                                               ; preds = %27
  %29 = load ptr, ptr %8, align 8
  %30 = getelementptr inbounds nuw %struct.dbd_register_ctld_msg, ptr %29, i32 0, i32 1
  %31 = load ptr, ptr %7, align 8
  %32 = call i32 @unpack32(ptr noundef %30, ptr noundef %31)
  %33 = icmp ne i32 %32, 0
  br i1 %33, label %34, label %35

34:                                               ; preds = %28
  br label %96

35:                                               ; preds = %28
  br label %36

36:                                               ; preds = %35
  br label %37

37:                                               ; preds = %36
  br label %38

38:                                               ; preds = %37
  %39 = load ptr, ptr %8, align 8
  %40 = getelementptr inbounds nuw %struct.dbd_register_ctld_msg, ptr %39, i32 0, i32 2
  %41 = load ptr, ptr %7, align 8
  %42 = call i32 @unpack16(ptr noundef %40, ptr noundef %41)
  %43 = icmp ne i32 %42, 0
  br i1 %43, label %44, label %45

44:                                               ; preds = %38
  br label %96

45:                                               ; preds = %38
  br label %46

46:                                               ; preds = %45
  br label %47

47:                                               ; preds = %46
  br label %95

48:                                               ; preds = %3
  %49 = load i16, ptr %6, align 2
  %50 = zext i16 %49 to i32
  %51 = icmp sge i32 %50, 10240
  br i1 %51, label %52, label %94

52:                                               ; preds = %48
  call void @llvm.lifetime.start.p0(i64 4, ptr %9) #5
  br label %53

53:                                               ; preds = %52
  %54 = load ptr, ptr %8, align 8
  %55 = getelementptr inbounds nuw %struct.dbd_register_ctld_msg, ptr %54, i32 0, i32 0
  %56 = load ptr, ptr %7, align 8
  %57 = call i32 @unpack16(ptr noundef %55, ptr noundef %56)
  %58 = icmp ne i32 %57, 0
  br i1 %58, label %59, label %60

59:                                               ; preds = %53
  store i32 4, ptr %10, align 4
  br label %91

60:                                               ; preds = %53
  br label %61

61:                                               ; preds = %60
  br label %62

62:                                               ; preds = %61
  br label %63

63:                                               ; preds = %62
  %64 = load ptr, ptr %8, align 8
  %65 = getelementptr inbounds nuw %struct.dbd_register_ctld_msg, ptr %64, i32 0, i32 1
  %66 = load ptr, ptr %7, align 8
  %67 = call i32 @unpack32(ptr noundef %65, ptr noundef %66)
  %68 = icmp ne i32 %67, 0
  br i1 %68, label %69, label %70

69:                                               ; preds = %63
  store i32 4, ptr %10, align 4
  br label %91

70:                                               ; preds = %63
  br label %71

71:                                               ; preds = %70
  br label %72

72:                                               ; preds = %71
  br label %73

73:                                               ; preds = %72
  %74 = load ptr, ptr %7, align 8
  %75 = call i32 @unpack32(ptr noundef %9, ptr noundef %74)
  %76 = icmp ne i32 %75, 0
  br i1 %76, label %77, label %78

77:                                               ; preds = %73
  store i32 4, ptr %10, align 4
  br label %91

78:                                               ; preds = %73
  br label %79

79:                                               ; preds = %78
  br label %80

80:                                               ; preds = %79
  br label %81

81:                                               ; preds = %80
  %82 = load ptr, ptr %8, align 8
  %83 = getelementptr inbounds nuw %struct.dbd_register_ctld_msg, ptr %82, i32 0, i32 2
  %84 = load ptr, ptr %7, align 8
  %85 = call i32 @unpack16(ptr noundef %83, ptr noundef %84)
  %86 = icmp ne i32 %85, 0
  br i1 %86, label %87, label %88

87:                                               ; preds = %81
  store i32 4, ptr %10, align 4
  br label %91

88:                                               ; preds = %81
  br label %89

89:                                               ; preds = %88
  br label %90

90:                                               ; preds = %89
  store i32 0, ptr %10, align 4
  br label %91

91:                                               ; preds = %87, %77, %69, %59, %90
  call void @llvm.lifetime.end.p0(i64 4, ptr %9) #5
  %92 = load i32, ptr %10, align 4
  switch i32 %92, label %99 [
    i32 0, label %93
    i32 4, label %96
  ]

93:                                               ; preds = %91
  br label %94

94:                                               ; preds = %93, %48
  br label %95

95:                                               ; preds = %94, %47
  store i32 0, ptr %4, align 4
  store i32 1, ptr %10, align 4
  br label %99

96:                                               ; preds = %91, %44, %34, %24
  %97 = load ptr, ptr %8, align 8
  call void @slurmdbd_free_register_ctld_msg(ptr noundef %97)
  %98 = load ptr, ptr %5, align 8
  store ptr null, ptr %98, align 8
  store i32 -1, ptr %4, align 4
  store i32 1, ptr %10, align 4
  br label %99

99:                                               ; preds = %96, %95, %91
  call void @llvm.lifetime.end.p0(i64 8, ptr %8) #5
  %100 = load i32, ptr %4, align 4
  ret i32 %100
}