; Function Attrs: nounwind uwtable
define internal fastcc range(i32 -1, 1) i32 @_unpack_register_ctld_msg(ptr noundef writeonly captures(none) initializes((0, 8)) %0, i16 noundef zeroext %1, ptr noundef %2) unnamed_addr #0 {
  %4 = alloca i32, align 4
  %5 = tail call ptr @slurm_xcalloc(i64 noundef 1, i64 noundef 12, i1 noundef zeroext true, i1 noundef zeroext false, ptr noundef nonnull @.str, i32 noundef 1106, ptr noundef nonnull @__func__._unpack_register_ctld_msg) #5
  store ptr %5, ptr %0, align 8
  %6 = icmp ugt i16 %1, 10495
  br i1 %6, label %7, label %15

7:                                                ; preds = %3
  %8 = tail call i32 @unpack16(ptr noundef %5, ptr noundef %2) #5
  %.not25 = icmp eq i32 %8, 0
  br i1 %.not25, label %9, label %28

9:                                                ; preds = %7
  %10 = getelementptr inbounds nuw i8, ptr %5, i64 4
  %11 = tail call i32 @unpack32(ptr noundef nonnull %10, ptr noundef %2) #5
  %.not26 = icmp eq i32 %11, 0
  br i1 %.not26, label %12, label %28

12:                                               ; preds = %9
  %13 = getelementptr inbounds nuw i8, ptr %5, i64 8
  %14 = tail call i32 @unpack16(ptr noundef nonnull %13, ptr noundef %2) #5
  %.not27 = icmp eq i32 %14, 0
  br i1 %.not27, label %29, label %28

15:                                               ; preds = %3
  %16 = icmp samesign ugt i16 %1, 10239
  br i1 %16, label %17, label %29

17:                                               ; preds = %15
  call void @llvm.lifetime.start.p0(i64 4, ptr nonnull %4) #5
  %18 = tail call i32 @unpack16(ptr noundef %5, ptr noundef %2) #5
  %.not = icmp eq i32 %18, 0
  br i1 %.not, label %19, label %.thread

19:                                               ; preds = %17
  %20 = getelementptr inbounds nuw i8, ptr %5, i64 4
  %21 = tail call i32 @unpack32(ptr noundef nonnull %20, ptr noundef %2) #5
  %.not22 = icmp eq i32 %21, 0
  br i1 %.not22, label %22, label %.thread

22:                                               ; preds = %19
  %23 = call i32 @unpack32(ptr noundef nonnull %4, ptr noundef %2) #5
  %.not23 = icmp eq i32 %23, 0
  br i1 %.not23, label %24, label %.thread

24:                                               ; preds = %22
  %25 = getelementptr inbounds nuw i8, ptr %5, i64 8
  %26 = call i32 @unpack16(ptr noundef nonnull %25, ptr noundef %2) #5
  %.not24 = icmp eq i32 %26, 0
  br i1 %.not24, label %27, label %.thread

.thread:                                          ; preds = %17, %19, %22, %24
  call void @llvm.lifetime.end.p0(i64 4, ptr nonnull %4) #5
  br label %28

27:                                               ; preds = %24
  call void @llvm.lifetime.end.p0(i64 4, ptr nonnull %4) #5
  br label %29

28:                                               ; preds = %.thread, %12, %9, %7
  call void @slurmdbd_free_register_ctld_msg(ptr noundef %5) #5
  store ptr null, ptr %0, align 8
  br label %29

29:                                               ; preds = %27, %12, %15, %28
  %.020 = phi i32 [ -1, %28 ], [ 0, %27 ], [ 0, %15 ], [ 0, %12 ]
  ret i32 %.020
}